target datalayout = "e-m:e-p270:32:32-p271:32:32-p272:64:64-i64:64-i128:128-f80:128-n8:16:32:64-S128"
target triple = "x86_64-pc-linux-gnu"

%"struct.std::atomic.6" = type { %"struct.std::__atomic_base.7" }
%"struct.std::__atomic_base.7" = type { i8 }
%"class.std::mutex" = type { %"class.std::__mutex_base" }
%"class.std::__mutex_base" = type { %union.pthread_mutex_t }
%union.pthread_mutex_t = type { %struct.__pthread_mutex_s }
%struct.__pthread_mutex_s = type { i32, i32, i32, i32, i32, i16, i16, %struct.__pthread_internal_list }
%struct.__pthread_internal_list = type { ptr, ptr }
%"struct.std::atomic" = type { %"struct.std::__atomic_base" }
%"struct.std::__atomic_base" = type { i64 }
%"class.duckdb::TaskScheduler" = type <{ ptr, %"class.duckdb::unique_ptr.211", %"class.std::mutex", %"class.duckdb::vector.220", %"class.duckdb::vector.226", %"struct.std::atomic", %"struct.std::atomic.6", [3 x i8], %"struct.std::atomic.232", %"struct.std::atomic.232", [4 x i8] }>
%"class.duckdb::unique_ptr.211" = type { %"class.std::unique_ptr.212" }
%"class.std::unique_ptr.212" = type { %"struct.std::__uniq_ptr_data.213" }
%"struct.std::__uniq_ptr_data.213" = type { %"class.std::__uniq_ptr_impl.214" }
%"class.std::__uniq_ptr_impl.214" = type { %"class.std::tuple.215" }
%"class.std::tuple.215" = type { %"struct.std::_Tuple_impl.216" }
%"struct.std::_Tuple_impl.216" = type { %"struct.std::_Head_base.219" }
%"struct.std::_Head_base.219" = type { ptr }
%"class.duckdb::vector.220" = type { %"class.std::vector.221" }
%"class.std::vector.221" = type { %"struct.std::_Vector_base.222" }
%"struct.std::_Vector_base.222" = type { %"struct.std::_Vector_base<duckdb::unique_ptr<duckdb::SchedulerThread>, std::allocator<duckdb::unique_ptr<duckdb::SchedulerThread>>>::_Vector_impl" }
%"struct.std::_Vector_base<duckdb::unique_ptr<duckdb::SchedulerThread>, std::allocator<duckdb::unique_ptr<duckdb::SchedulerThread>>>::_Vector_impl" = type { %"struct.std::_Vector_base<duckdb::unique_ptr<duckdb::SchedulerThread>, std::allocator<duckdb::unique_ptr<duckdb::SchedulerThread>>>::_Vector_impl_data" }
%"struct.std::_Vector_base<duckdb::unique_ptr<duckdb::SchedulerThread>, std::allocator<duckdb::unique_ptr<duckdb::SchedulerThread>>>::_Vector_impl_data" = type { ptr, ptr, ptr }
%"class.duckdb::vector.226" = type { %"class.std::vector.227" }
%"class.std::vector.227" = type { %"struct.std::_Vector_base.228" }
%"struct.std::_Vector_base.228" = type { %"struct.std::_Vector_base<duckdb::unique_ptr<std::atomic<bool>>, std::allocator<duckdb::unique_ptr<std::atomic<bool>>>>::_Vector_impl" }
%"struct.std::_Vector_base<duckdb::unique_ptr<std::atomic<bool>>, std::allocator<duckdb::unique_ptr<std::atomic<bool>>>>::_Vector_impl" = type { %"struct.std::_Vector_base<duckdb::unique_ptr<std::atomic<bool>>, std::allocator<duckdb::unique_ptr<std::atomic<bool>>>>::_Vector_impl_data" }
%"struct.std::_Vector_base<duckdb::unique_ptr<std::atomic<bool>>, std::allocator<duckdb::unique_ptr<std::atomic<bool>>>>::_Vector_impl_data" = type { ptr, ptr, ptr }
%"struct.std::atomic.232" = type { %"struct.std::__atomic_base.233" }
%"struct.std::__atomic_base.233" = type { i32 }
%"struct.duckdb::ConcurrentQueue" = type { %"class.duckdb_moodycamel::ConcurrentQueue", %"class.duckdb_moodycamel::LightweightSemaphore" }
%"class.duckdb_moodycamel::ConcurrentQueue" = type <{ %"struct.std::atomic.1050", %"struct.std::atomic.1052", [4 x i8], %"struct.std::atomic", ptr, i64, %"struct.duckdb_moodycamel::ConcurrentQueue<duckdb::shared_ptr<duckdb::Task>>::FreeList", %"struct.std::atomic.1056", %"struct.std::atomic", %"struct.duckdb_moodycamel::ConcurrentQueue<duckdb::shared_ptr<duckdb::Task>>::ImplicitProducerHash", %"struct.std::array", %"struct.std::atomic_flag", [3 x i8], %"struct.std::atomic.1052", %"struct.std::atomic.1052", [4 x i8] }>
%"struct.std::atomic.1050" = type { %"struct.std::__atomic_base.1051" }
%"struct.std::__atomic_base.1051" = type { ptr }
%"struct.duckdb_moodycamel::ConcurrentQueue<duckdb::shared_ptr<duckdb::Task>>::FreeList" = type { %"struct.std::atomic.1054" }
%"struct.std::atomic.1054" = type { %"struct.std::__atomic_base.1055" }
%"struct.std::__atomic_base.1055" = type { ptr }
%"struct.std::atomic.1056" = type { %"struct.std::__atomic_base.1057" }
%"struct.std::__atomic_base.1057" = type { ptr }
%"struct.duckdb_moodycamel::ConcurrentQueue<duckdb::shared_ptr<duckdb::Task>>::ImplicitProducerHash" = type { i64, ptr, ptr }
%"struct.std::array" = type { [32 x %"struct.duckdb_moodycamel::ConcurrentQueue<duckdb::shared_ptr<duckdb::Task>>::ImplicitProducerKVP"] }
%"struct.duckdb_moodycamel::ConcurrentQueue<duckdb::shared_ptr<duckdb::Task>>::ImplicitProducerKVP" = type { %"struct.std::atomic", ptr }
%"struct.std::atomic_flag" = type { %"struct.std::__atomic_flag_base" }
%"struct.std::__atomic_flag_base" = type { i8 }
%"struct.std::atomic.1052" = type { %"struct.std::__atomic_base.1053" }
%"struct.std::__atomic_base.1053" = type { i32 }
%"class.duckdb_moodycamel::LightweightSemaphore" = type { %"struct.std::atomic.1058", %"class.duckdb_moodycamel::details::Semaphore" }
%"struct.std::atomic.1058" = type { %"struct.std::__atomic_base.1059" }
%"struct.std::__atomic_base.1059" = type { i64 }
%"class.duckdb_moodycamel::details::Semaphore" = type { %union.sem_t }
%union.sem_t = type { i64, [24 x i8] }

; Function Attrs: mustprogress nounwind uwtable
define linkonce_odr void @_ZN17duckdb_moodycamel7details9Semaphore6signalEi(ptr noundef nonnull align 8 dereferenceable(32) %0, i32 noundef %1) #1 comdat align 2 {
  %3 = alloca ptr, align 8
  %4 = alloca i32, align 4
  store ptr %0, ptr %3, align 8, !tbaa !2228
  store i32 %1, ptr %4, align 4, !tbaa !189
  %5 = load ptr, ptr %3, align 8
  br label %6

6:                                                ; preds = %16, %2
  %7 = load i32, ptr %4, align 4, !tbaa !189
  %8 = add nsw i32 %7, -1
  store i32 %8, ptr %4, align 4, !tbaa !189
  %9 = icmp sgt i32 %7, 0
  br i1 %9, label %10, label %17

10:                                               ; preds = %6
  br label %11

11:                                               ; preds = %15, %10
  %12 = getelementptr inbounds nuw %"class.duckdb_moodycamel::details::Semaphore", ptr %5, i32 0, i32 0
  %13 = call i32 @sem_post(ptr noundef %12) #24
  %14 = icmp eq i32 %13, -1
  br i1 %14, label %15, label %16

15:                                               ; preds = %11
  br label %11, !llvm.loop !2230

16:                                               ; preds = %11
  br label %6, !llvm.loop !2231

17:                                               ; preds = %6
  ret void
}

; Function Attrs: alwaysinline mustprogress nounwind uwtable
define linkonce_odr noundef i64 @_ZNSt13__atomic_baseIlE9fetch_addElSt12memory_order(ptr noundef nonnull align 8 dereferenceable(8) %0, i64 noundef %1, i32 noundef %2) #11 comdat align 2 {
  %4 = alloca ptr, align 8
  %5 = alloca i64, align 8
  %6 = alloca i32, align 4
  %7 = alloca i64, align 8
  %8 = alloca i64, align 8
  store ptr %0, ptr %4, align 8, !tbaa !2226
  store i64 %1, ptr %5, align 8, !tbaa !150
  store i32 %2, ptr %6, align 4, !tbaa !656
  %9 = load ptr, ptr %4, align 8
  %10 = getelementptr inbounds nuw %"struct.std::__atomic_base.1059", ptr %9, i32 0, i32 0
  %11 = load i32, ptr %6, align 4, !tbaa !656
  %12 = load i64, ptr %5, align 8, !tbaa !150
  store i64 %12, ptr %7, align 8, !tbaa !150
  switch i32 %11, label %13 [
    i32 1, label %16
    i32 2, label %16
    i32 3, label %19
    i32 4, label %22
    i32 5, label %25
  ]

13:                                               ; preds = %3
  %14 = load i64, ptr %7, align 8
  %15 = atomicrmw add ptr %10, i64 %14 monotonic, align 8
  store i64 %15, ptr %8, align 8
  br label %28

16:                                               ; preds = %3, %3
  %17 = load i64, ptr %7, align 8
  %18 = atomicrmw add ptr %10, i64 %17 acquire, align 8
  store i64 %18, ptr %8, align 8
  br label %28

19:                                               ; preds = %3
  %20 = load i64, ptr %7, align 8
  %21 = atomicrmw add ptr %10, i64 %20 release, align 8
  store i64 %21, ptr %8, align 8
  br label %28

22:                                               ; preds = %3
  %23 = load i64, ptr %7, align 8
  %24 = atomicrmw add ptr %10, i64 %23 acq_rel, align 8
  store i64 %24, ptr %8, align 8
  br label %28

25:                                               ; preds = %3
  %26 = load i64, ptr %7, align 8
  %27 = atomicrmw add ptr %10, i64 %26 seq_cst, align 8
  store i64 %27, ptr %8, align 8
  br label %28

28:                                               ; preds = %25, %22, %19, %16, %13
  %29 = load i64, ptr %8, align 8, !tbaa !150
  ret i64 %29
}

; Function Attrs: mustprogress uwtable
define linkonce_odr void @_ZN17duckdb_moodycamel20LightweightSemaphore6signalEl(ptr noundef nonnull align 8 dereferenceable(40) %0, i64 noundef %1) #0 comdat align 2 {
  %3 = alloca ptr, align 8
  %4 = alloca i64, align 8
  %5 = alloca i64, align 8
  %6 = alloca i64, align 8
  store ptr %0, ptr %3, align 8, !tbaa !1207
  store i64 %1, ptr %4, align 8, !tbaa !150
  %7 = load ptr, ptr %3, align 8
  call void @llvm.lifetime.start.p0(i64 8, ptr %5) #24
  %8 = getelementptr inbounds nuw %"class.duckdb_moodycamel::LightweightSemaphore", ptr %7, i32 0, i32 0
  %9 = load i64, ptr %4, align 8, !tbaa !150
  %10 = call noundef i64 @_ZNSt13__atomic_baseIlE9fetch_addElSt12memory_order(ptr noundef nonnull align 8 dereferenceable(8) %8, i64 noundef %9, i32 noundef 3) #24
  store i64 %10, ptr %5, align 8, !tbaa !150
  call void @llvm.lifetime.start.p0(i64 8, ptr %6) #24
  %11 = load i64, ptr %5, align 8, !tbaa !150
  %12 = sub nsw i64 0, %11
  %13 = load i64, ptr %4, align 8, !tbaa !150
  %14 = icmp slt i64 %12, %13
  br i1 %14, label %15, label %18

15:                                               ; preds = %2
  %16 = load i64, ptr %5, align 8, !tbaa !150
  %17 = sub nsw i64 0, %16
  br label %20

18:                                               ; preds = %2
  %19 = load i64, ptr %4, align 8, !tbaa !150
  br label %20

20:                                               ; preds = %18, %15
  %21 = phi i64 [ %17, %15 ], [ %19, %18 ]
  store i64 %21, ptr %6, align 8, !tbaa !150
  %22 = load i64, ptr %6, align 8, !tbaa !150
  %23 = icmp sgt i64 %22, 0
  br i1 %23, label %24, label %28

24:                                               ; preds = %20
  %25 = getelementptr inbounds nuw %"class.duckdb_moodycamel::LightweightSemaphore", ptr %7, i32 0, i32 1
  %26 = load i64, ptr %6, align 8, !tbaa !150
  %27 = trunc i64 %26 to i32
  call void @_ZN17duckdb_moodycamel7details9Semaphore6signalEi(ptr noundef nonnull align 8 dereferenceable(32) %25, i32 noundef %27)
  br label %28

28:                                               ; preds = %24, %20
  call void @llvm.lifetime.end.p0(i64 8, ptr %6) #24
  call void @llvm.lifetime.end.p0(i64 8, ptr %5) #24
  ret void
}

; Function Attrs: mustprogress uwtable
define linkonce_odr noundef i64 @_ZN6duckdb11NumericCastIlmvEET_T0_(i64 noundef %0) #0 comdat {
  %2 = alloca i64, align 8
  store i64 %0, ptr %2, align 8, !tbaa !150
  %3 = load i64, ptr %2, align 8, !tbaa !150
  %4 = call noundef i64 @_ZN6duckdb15NumericCastImplIlmLb0EE7ConvertEm(i64 noundef %3)
  ret i64 %4
}

; Function Attrs: mustprogress uwtable
define void @_ZN6duckdb13TaskScheduler6SignalEm(ptr noundef nonnull align 8 dereferenceable(124) %0, i64 noundef %1) #0 align 2 {
  %3 = alloca ptr, align 8
  %4 = alloca i64, align 8
  store ptr %0, ptr %3, align 8, !tbaa !253
  store i64 %1, ptr %4, align 8, !tbaa !150
  %5 = load ptr, ptr %3, align 8
  %6 = getelementptr inbounds nuw %"class.duckdb::TaskScheduler", ptr %5, i32 0, i32 1
  %7 = call noundef ptr @_ZNK6duckdb10unique_ptrINS_15ConcurrentQueueESt14default_deleteIS1_ELb1EEptEv(ptr noundef nonnull align 8 dereferenceable(8) %6)
  %8 = getelementptr inbounds nuw %"struct.duckdb::ConcurrentQueue", ptr %7, i32 0, i32 1
  %9 = load i64, ptr %4, align 8, !tbaa !150
  %10 = call noundef i64 @_ZN6duckdb11NumericCastIlmvEET_T0_(i64 noundef %9)
  call void @_ZN17duckdb_moodycamel20LightweightSemaphore6signalEl(ptr noundef nonnull align 8 dereferenceable(40) %8, i64 noundef %10)
  ret void
}