; Function Attrs: mustprogress uwtable
define void @_ZN6duckdb13TaskScheduler6SignalEm(ptr noundef nonnull align 8 dereferenceable(124) %0, i64 noundef %1) local_unnamed_addr #0 align 2 {
  %3 = getelementptr inbounds nuw i8, ptr %0, i64 8
  %4 = tail call noundef ptr @_ZNK6duckdb10unique_ptrINS_15ConcurrentQueueESt14default_deleteIS1_ELb1EEptEv(ptr noundef nonnull align 8 dereferenceable(8) %3)
  %5 = getelementptr inbounds nuw i8, ptr %4, i64 616
  %6 = tail call noundef i64 @_ZN6duckdb15NumericCastImplIlmLb0EE7ConvertEm(i64 noundef %1)
  %7 = atomicrmw add ptr %5, i64 %6 release, align 8
  %8 = sub nsw i64 0, %7
  %9 = tail call i64 @llvm.smin.i64(i64 %6, i64 %8)
  %10 = icmp sgt i64 %9, 0
  br i1 %10, label %11, label %_ZN17duckdb_moodycamel20LightweightSemaphore6signalEl.exit

11:                                               ; preds = %2
  %12 = getelementptr inbounds nuw i8, ptr %4, i64 624
  %13 = trunc i64 %9 to i32
  %14 = icmp sgt i32 %13, 0
  br i1 %14, label %.preheader.i.i, label %_ZN17duckdb_moodycamel20LightweightSemaphore6signalEl.exit

.preheader.i.i:                                   ; preds = %11, %18
  %.in.i.i = phi i32 [ %19, %18 ], [ %13, %11 ]
  br label %15

15:                                               ; preds = %15, %.preheader.i.i
  %16 = tail call i32 @sem_post(ptr noundef nonnull align 8 dereferenceable(32) %12) #35
  %17 = icmp eq i32 %16, -1
  br i1 %17, label %15, label %18, !llvm.loop !1140

18:                                               ; preds = %15
  %19 = add nsw i32 %.in.i.i, -1
  %20 = icmp sgt i32 %.in.i.i, 1
  br i1 %20, label %.preheader.i.i, label %_ZN17duckdb_moodycamel20LightweightSemaphore6signalEl.exit, !llvm.loop !1274

_ZN17duckdb_moodycamel20LightweightSemaphore6signalEl.exit: ; preds = %18, %2, %11
  ret void
}